(dp0
F1253822276.6531849
(lp1
S'stephen'
p2
aS'i enjoy cheese'
p3
asF1253821797.7586679
(lp4
S'stephen'
p5
aS'I am made of cheese'
p6
asF1254148358.0832231
(lp7
S'foobar'
p8
aS'AAAAAAAAAAAAAAAAAAAAAAAAAAAAAAAAAAAAAAAAAAAAAAAAAAAAAAAAAAAAAAAAAAAAAAAAAAAAAAAAAAAAAAAAAAAAAAAAAAAAAAAAAAAAAAAAAAAAAAAAAAAAAAAAAAAAAAAAAAAAAAAAAAAAAAAAAAAAAAAAAAAAAAAAAAAAAAAAAAAAAAAAAAAAAAAAAAAAAAAAAAAAAAAAAAAAAAAAAAAAAAAAAAAAAAAAAAAAAAAAAAAAAAAAAAAAAAAA... [TRUNCATED]'
p9
asF1253822376.7466731
(lp10
S'stephen'
p11
aS'this is a test'
p12
asF1254495599.8721859
(lp13
S'stephen'
p14
aS'blah'
p15
asF1254057618.4072139
(lp16
S'stephen'
p17
aS'This is a very interesting messageboard'
p18
asF1253822910.847635
(lp19
S'stephen'
p20
aS"I don't like you"
p21
asF1254060219.5897069
(lp22
S'stephen'
p23
aS'Hi I like cheese.'
p24
asF1253822878.534981
(lp25
S'stephen'
p26
aS'this is a test'
p27
asF1253834527.973907
(lp28
S'stephen'
p29
aS'This is a test'
p30
as.