(dp0
S'SISL'
p1
(lp2
S'ac6e500ff1507dbd1c764a5af201e842'
p3
aS'University of Illinois at Chicago'
p4
aI900
a(lp5
S'9fa2ed4d5c181386c717a486eadef4bfcd7d7ed926b5b204'
p6
aS'6eaa3449f7c743e714b795bf95777e31a16289123e35bdbf45f14a606a7285e8b25a540e7b887ce486524b0ab9249493'
p7
aS'd81e8213797f23651cf57e59b4bd8da0'
p8
aS'6b7e4b50998169bc8e2a2b253ee7d9b9'
p9
aS'd3cfbbe8d785f6af1c3ac78005d1a35ccc0bcd50'
p10
aasS'rvg'
p11
(lp12
S'19845c0e9cb08bef3d4f68bcae99bff5'
p13
aS'rv'
p14
aI550
a(lp15
S'Stephania_Vu'
p16
aS'6b7e4b50998169bc8e2a2b253ee7d9b9'
p17
aasS'`ls`;:\'|"'
p18
(lp19
S'd41d8cd98f00b204e9800998ecf8427e'
p20
aS''
p21
aI0
a(lp22
asS'teamalph@1'
p23
(lp24
S'13ece26c01d942ee4d618f2fbbf81325'
p25
aS'Multiple'
p26
aI4450
a(lp27
S'd3cfbbe8d785f6af1c3ac78005d1a35ccc0bcd50'
p28
aS'22916d763014eacc592c9e37ac56b337'
p29
aS'Stephania_Vu'
p30
aS'Alex & Ryan, I know you cheated!'
p31
aS'Kanye West is a jackass.'
p32
aS'http://www.canabalt.com/'
p33
aS'd81e8213797f23651cf57e59b4bd8da0'
p34
aS'Chipotle-away!'
p35
aS'6b7e4b50998169bc8e2a2b253ee7d9b9'
p36
aS'She sells CSAWs by the seashore.'
p37
aasS'foobar'
p38
(lp39
S'96948aad3fcae80c08a35c9b5958cd89'
p40
aS'AAAAAAAAAAAAAAAAAAAAAAAAAAAAAAAAAAAAAAAAAAAAAAAAAAAAAAAAAAAAAAAAAAAAAAAAAAAAAAAAAAAAAAAAAAAAAAAAAAAAAAAAAAAAAAAAAAAAAAAAAAAAAAAAAAAAAAAAAAAAAAAAAAAAAAAAAAAAAAAAAAAAAAAAAAAAAAAAAAAAAAAAAAAAAAAAAAAAAAAAAAAAAAAAAAAAAAAAAAAAAAAAAAAAAAAAAAAAAAAAAAAAAAAAAAAAAAAAAAAAAAAAAAAAAAAAAAAAAAAAAAAAAAAAAAAAAAAAAAAAAAAAAAAAAAAAAAAAAAAAAAAAAAAAAAAAAAAAAAAAAAAAAAAAAAAAAAAAAAAAAAAAAAAAAAAAAAAAAAAAAAAAAAAAA'
p41
aI0
a(lp42
asS'backdoorbandits'
p43
(lp44
S'ecd720607ecaa0cd1d812c51ce28a7cc'
p45
aS'AACC'
p46
aI400
a(lp47
S'Stephania_Vu'
p48
aasS'Jolly'
p49
(lp50
S'd64bc1eb577b062fa13ed20ddbc130f3'
p51
aS'NotCompeting'
p52
aI0
a(lp53
asS'ncrews'
p54
(lp55
S'9946871957891ba259f451940b4d82ba'
p56
aS'coolest'
p57
aI0
a(lp58
asS'ravi'
p59
(lp60
S'd007cb0434f9d2219e6bd8cb7d7245a0'
p61
aS'poly.edu - dummy registration test'
p62
aI0
a(lp63
asS'lolcat'
p64
(lp65
S'1aae4f5eb740067d22088604cd0dc189'
p66
aS'lolcat'
p67
aI0
a(lp68
asS'A Saphead'
p69
(lp70
S'6a204bd89f3c8348afd5c77c717a097a'
p71
aS'Sapheads'
p72
aI0
a(lp73
asS'phunkie'
p74
(lp75
S'ec49cd057198aec49ce1dc7302737078'
p76
aS'n/a'
p77
aI300
a(lp78
S'd81e8213797f23651cf57e59b4bd8da0'
p79
aasS'ppop'
p80
(lp81
S'073e62c77d09eccd1d0a1717a34587f0'
p82
aS'Plaid Parliament of Pwning (CMU)'
p83
aI12650
a(lp84
S'd81e8213797f23651cf57e59b4bd8da0'
p85
aS'9fa2ed4d5c181386c717a486eadef4bfcd7d7ed926b5b204'
p86
aS'7db7cfa6112ae35488a00ee2b1af30f8'
p87
aS'6eaa3449f7c743e714b795bf95777e31a16289123e35bdbf45f14a606a7285e8b25a540e7b887ce486524b0ab9249493'
p88
aS'Stephania_Vu'
p89
aS'22916d763014eacc592c9e37ac56b337'
p90
aS'=2123409872345098237450928345720394857'
p91
aS'6b7e4b50998169bc8e2a2b253ee7d9b9'
p92
aS'Kanye West is a jackass.'
p93
aS'http://www.canabalt.com/'
p94
aS'Alex & Ryan, I know you cheated!'
p95
aS'Chipotle-away!'
p96
aS'The time has come the walrus said.'
p97
aS'She sells CSAWs by the seashore.'
p98
aS'15a1481fba554e8002ca89013ceae50b'
p99
aS'4f42b2118ae13f0c0d01e79925db15e9'
p100
aS'42c87be0d8b21f5488b2576729f4b442'
p101
aS'5c5f9b0d6eeb92f3f82d472213c8a17e'
p102
aS'4612f502b8936fab6fffc71d5ba7098c'
p103
aS'f2dd5fb0fe58bf8c8971f9b2b40bb2b6'
p104
aS'07f510b08daf9623b790b35b1281363b5854069f2af396fbb2c3b8731bb81ffd'
p105
aasS'CMU'
p106
(lp107
S'ca8c8dd851420afd4cedd2eb136a9dcf'
p108
aS'Sober'
p109
aI9350
a(lp110
S'd3cfbbe8d785f6af1c3ac78005d1a35ccc0bcd50'
p111
aS'Stephania_Vu'
p112
aS'9fa2ed4d5c181386c717a486eadef4bfcd7d7ed926b5b204'
p113
aS'=2123409872345098237450928345720394857'
p114
aS'd81e8213797f23651cf57e59b4bd8da0'
p115
aS'6b7e4b50998169bc8e2a2b253ee7d9b9'
p116
aS'42c87be0d8b21f5488b2576729f4b442'
p117
aS'http://www.canabalt.com/'
p118
aS'Alex & Ryan, I know you cheated!'
p119
aS'Chipotle-away!'
p120
aS'Kanye West is a jackass.'
p121
aS'22916d763014eacc592c9e37ac56b337'
p122
aS'She sells CSAWs by the seashore.'
p123
aS'The time has come the walrus said.'
p124
aS'4f42b2118ae13f0c0d01e79925db15e9'
p125
aS'15a1481fba554e8002ca89013ceae50b'
p126
aS'01d028f7547bd13b522c24afd45d9064'
p127
aasS'cp'
p128
(lp129
S'a05ef84a88745c70ff1ea9dedd10e948'
p130
aS'An Cat.'
p131
aI1900
a(lp132
S'Kanye West is a jackass.'
p133
aS'Alex & Ryan, I know you cheated!'
p134
aS'Chipotle-away!'
p135
aasS'IEEE'
p136
(lp137
S'3d83928116900c5edda4b76daee1494f'
p138
aS'Poly IEEE'
p139
aI0
a(lp140
asS'CyberCadets'
p141
(lp142
S'f41387b6d5543d3d1379eeec3f4e078d'
p143
aS'Norwich University'
p144
aI150
a(lp145
S'6b7e4b50998169bc8e2a2b253ee7d9b9'
p146
aasS'deanzero'
p147
(lp148
S'c3add7c8877a1a2f02bf95a1b47b3b2b'
p149
aS'er, I fail at this part'
p150
aI0
a(lp151
asS'uaf'
p152
(lp153
S'fd58b2f05809b110779530bb2e4d9d8b'
p154
aS'from the frozen north'
p155
aI4450
a(lp156
S'=2123409872345098237450928345720394857'
p157
aS'd81e8213797f23651cf57e59b4bd8da0'
p158
aS'd3cfbbe8d785f6af1c3ac78005d1a35ccc0bcd50'
p159
aS'Stephania_Vu'
p160
aS'22916d763014eacc592c9e37ac56b337'
p161
aS'Alex & Ryan, I know you cheated!'
p162
aS'Chipotle-away!'
p163
aS'Kanye West is a jackass.'
p164
aS'http://www.canabalt.com/'
p165
aS'She sells CSAWs by the seashore.'
p166
aasS'rv'
p167
(lp168
S'243b0a66435299713f9593d8ecc72679'
p169
aS'rv'
p170
aI0
a(lp171
asS'revenger'
p172
(lp173
S'0af80fcfcee67fa7d9a1d2d6163a0371'
p174
aS'school'
p175
aI4850
a(lp176
S'6eaa3449f7c743e714b795bf95777e31a16289123e35bdbf45f14a606a7285e8b25a540e7b887ce486524b0ab9249493'
p177
aS'b6fba5043d1a8fc1b670ea211c22b779c34c3c67'
p178
aS'7db7cfa6112ae35488a00ee2b1af30f8'
p179
aS'6b7e4b50998169bc8e2a2b253ee7d9b9'
p180
aS'=2123409872345098237450928345720394857'
p181
aS'd81e8213797f23651cf57e59b4bd8da0'
p182
aS'Stephania_Vu'
p183
aS'22916d763014eacc592c9e37ac56b337'
p184
aS'9fa2ed4d5c181386c717a486eadef4bfcd7d7ed926b5b204'
p185
aS'Alex & Ryan, I know you cheated!'
p186
aS'Chipotle-away!'
p187
aS'http://www.canabalt.com/'
p188
aS'Kanye West is a jackass.'
p189
aasS'HockeyInJune'
p190
(lp191
S'0f8a353fced9eebbdd45b1441d8731c8'
p192
aS'Freshman @ NYU Poly.'
p193
aI6150
a(lp194
S'd3cfbbe8d785f6af1c3ac78005d1a35ccc0bcd50'
p195
aS'6eaa3449f7c743e714b795bf95777e31a16289123e35bdbf45f14a606a7285e8b25a540e7b887ce486524b0ab9249493'
p196
aS'b6fba5043d1a8fc1b670ea211c22b779c34c3c67'
p197
aS'6b7e4b50998169bc8e2a2b253ee7d9b9'
p198
aS'=2123409872345098237450928345720394857'
p199
aS'9fa2ed4d5c181386c717a486eadef4bfcd7d7ed926b5b204'
p200
aS'd81e8213797f23651cf57e59b4bd8da0'
p201
aS'Stephania_Vu'
p202
aS'22916d763014eacc592c9e37ac56b337'
p203
aS'Alex & Ryan, I know you cheated!'
p204
aS'Chipotle-away!'
p205
aS'Kanye West is a jackass.'
p206
aS'She sells CSAWs by the seashore.'
p207
aS'The time has come the walrus said.'
p208
aS'7db7cfa6112ae35488a00ee2b1af30f8'
p209
aS'07f510b08daf9623b790b35b1281363b5854069f2af396fbb2c3b8731bb81ffd'
p210
aS'http://www.canabalt.com/'
p211
aasS'!first'
p212
(lp213
S'6dd075556effaa6e7f1e3e3ba9fdc5fa'
p214
aS'Cal Poly and Poly NYU!'
p215
aI5550
a(lp216
S'Stephania_Vu'
p217
aS'22916d763014eacc592c9e37ac56b337'
p218
aS'Alex & Ryan, I know you cheated!'
p219
aS'Chipotle-away!'
p220
aS'Kanye West is a jackass.'
p221
aS'http://www.canabalt.com/'
p222
aS'She sells CSAWs by the seashore.'
p223
aS'The time has come the walrus said.'
p224
aS'9fa2ed4d5c181386c717a486eadef4bfcd7d7ed926b5b204'
p225
aS'd3cfbbe8d785f6af1c3ac78005d1a35ccc0bcd50'
p226
aS'6eaa3449f7c743e714b795bf95777e31a16289123e35bdbf45f14a606a7285e8b25a540e7b887ce486524b0ab9249493'
p227
aS'd81e8213797f23651cf57e59b4bd8da0'
p228
aS'=2123409872345098237450928345720394857'
p229
aasS'SecDaemons'
p230
(lp231
S'd41d8cd98f00b204e9800998ecf8427e'
p232
aS'DePaul University'
p233
aI6900
a(lp234
S'd3cfbbe8d785f6af1c3ac78005d1a35ccc0bcd50'
p235
aS'6eaa3449f7c743e714b795bf95777e31a16289123e35bdbf45f14a606a7285e8b25a540e7b887ce486524b0ab9249493'
p236
aS'b6fba5043d1a8fc1b670ea211c22b779c34c3c67'
p237
aS'6b7e4b50998169bc8e2a2b253ee7d9b9'
p238
aS'=2123409872345098237450928345720394857'
p239
aS'9fa2ed4d5c181386c717a486eadef4bfcd7d7ed926b5b204'
p240
aS'd81e8213797f23651cf57e59b4bd8da0'
p241
aS'22916d763014eacc592c9e37ac56b337'
p242
aS'Stephania_Vu'
p243
aS'Alex & Ryan, I know you cheated!'
p244
aS'Chipotle-away!'
p245
aS'Kanye West is a jackass.'
p246
aS'http://www.canabalt.com/'
p247
aS'She sells CSAWs by the seashore.'
p248
aS'The time has come the walrus said.'
p249
aS'7db7cfa6112ae35488a00ee2b1af30f8'
p250
aS'07f510b08daf9623b790b35b1281363b5854069f2af396fbb2c3b8731bb81ffd'
p251
aS'42c87be0d8b21f5488b2576729f4b442'
p252
aasS'asdf'
p253
(lp254
S'912ec803b2ce49e4a541068d495ab570'
p255
aS'asdf'
p256
aI0
a(lp257
asS'fluxfingers'
p258
(lp259
S'ae2f30ef890f9239681d5ea7622ed791'
p260
aS'students from Ruhr-University Bochum'
p261
aI2250
a(lp262
S'7db7cfa6112ae35488a00ee2b1af30f8'
p263
aS'=2123409872345098237450928345720394857'
p264
aS'Stephania_Vu'
p265
aS'22916d763014eacc592c9e37ac56b337'
p266
aS'6b7e4b50998169bc8e2a2b253ee7d9b9'
p267
aS'9fa2ed4d5c181386c717a486eadef4bfcd7d7ed926b5b204'
p268
aS'b6fba5043d1a8fc1b670ea211c22b779c34c3c67'
p269
aS'd81e8213797f23651cf57e59b4bd8da0'
p270
aS'6eaa3449f7c743e714b795bf95777e31a16289123e35bdbf45f14a606a7285e8b25a540e7b887ce486524b0ab9249493'
p271
aasS'ed'
p272
(lp273
S'e64bd2664849002a18984a5eee82f6a1'
p274
aS'CMU (grad team)'
p275
aI0
a(lp276
asS'underground'
p277
(lp278
S'9c21c55ef670d9a90c3dfdc2053d3ff8'
p279
aS'purdue'
p280
aI3800
a(lp281
S'7db7cfa6112ae35488a00ee2b1af30f8'
p282
aS'6b7e4b50998169bc8e2a2b253ee7d9b9'
p283
aS'Stephania_Vu'
p284
aS'Alex & Ryan, I know you cheated!'
p285
aS'Chipotle-away!'
p286
aS'http://www.canabalt.com/'
p287
aS'22916d763014eacc592c9e37ac56b337'
p288
aS'Kanye West is a jackass.'
p289
aasS'TeamGG'
p290
(lp291
S'2a4a55ea09296769bb0801dd84b5c348'
p292
aS'UHH Team GG Hilo'
p293
aI5500
a(lp294
S'd3cfbbe8d785f6af1c3ac78005d1a35ccc0bcd50'
p295
aS'=2123409872345098237450928345720394857'
p296
aS'd81e8213797f23651cf57e59b4bd8da0'
p297
aS'6b7e4b50998169bc8e2a2b253ee7d9b9'
p298
aS'Stephania_Vu'
p299
aS'22916d763014eacc592c9e37ac56b337'
p300
aS'Alex & Ryan, I know you cheated!'
p301
aS'Chipotle-away!'
p302
aS'Kanye West is a jackass.'
p303
aS'http://www.canabalt.com/'
p304
aS'She sells CSAWs by the seashore.'
p305
aS'The time has come the walrus said.'
p306
aS'07f510b08daf9623b790b35b1281363b5854069f2af396fbb2c3b8731bb81ffd'
p307
aS'6eaa3449f7c743e714b795bf95777e31a16289123e35bdbf45f14a606a7285e8b25a540e7b887ce486524b0ab9249493'
p308
aasS'maxsecu'
p309
(lp310
S'591b2e5b56ff9bf4bf421dee6befc015'
p311
aS'etc'
p312
aI0
a(lp313
asS'ethanhayon'
p314
(lp315
S'e3aa1ba70d06e1a257ca37d25dfa3e1e'
p316
aS'Hayon'
p317
aI0
a(lp318
asS'HntrKlr'
p319
(lp320
S'0d4d918561ca72cbb83d7cd3a75b0537'
p321
aS'NOPerators'
p322
aI150
a(lp323
S'6b7e4b50998169bc8e2a2b253ee7d9b9'
p324
aasS'TeamAFK'
p325
(lp326
S'e295183063ea443a9cae6292f68cc021'
p327
aS'UHH Team AFK Hilo'
p328
aI5500
a(lp329
S'd3cfbbe8d785f6af1c3ac78005d1a35ccc0bcd50'
p330
aS'=2123409872345098237450928345720394857'
p331
aS'd81e8213797f23651cf57e59b4bd8da0'
p332
aS'6b7e4b50998169bc8e2a2b253ee7d9b9'
p333
aS'Stephania_Vu'
p334
aS'22916d763014eacc592c9e37ac56b337'
p335
aS'Alex & Ryan, I know you cheated!'
p336
aS'Chipotle-away!'
p337
aS'Kanye West is a jackass.'
p338
aS'http://www.canabalt.com/'
p339
aS'She sells CSAWs by the seashore.'
p340
aS'The time has come the walrus said.'
p341
aS'07f510b08daf9623b790b35b1281363b5854069f2af396fbb2c3b8731bb81ffd'
p342
aS'6eaa3449f7c743e714b795bf95777e31a16289123e35bdbf45f14a606a7285e8b25a540e7b887ce486524b0ab9249493'
p343
aasS'rofl0r'
p344
(lp345
S'31d8f5a16b79fe3f385a42cb3b892253'
p346
aS'n00b.at'
p347
aI4650
a(lp348
S'Stephania_Vu'
p349
aS'22916d763014eacc592c9e37ac56b337'
p350
aS'Alex & Ryan, I know you cheated!'
p351
aS'Chipotle-away!'
p352
aS'Kanye West is a jackass.'
p353
aS'http://www.canabalt.com/'
p354
aS'The time has come the walrus said.'
p355
aS'She sells CSAWs by the seashore.'
p356
aasS'sla.ckers'
p357
(lp358
S'0945fc9611f55fd0e183fb8b044f1afe'
p359
aS'sla.ckers.org'
p360
aI5900
a(lp361
S'6b7e4b50998169bc8e2a2b253ee7d9b9'
p362
aS'd3cfbbe8d785f6af1c3ac78005d1a35ccc0bcd50'
p363
aS'b6fba5043d1a8fc1b670ea211c22b779c34c3c67'
p364
aS'7db7cfa6112ae35488a00ee2b1af30f8'
p365
aS'9fa2ed4d5c181386c717a486eadef4bfcd7d7ed926b5b204'
p366
aS'd81e8213797f23651cf57e59b4bd8da0'
p367
aS'She sells CSAWs by the seashore.'
p368
aS'Stephania_Vu'
p369
aS'22916d763014eacc592c9e37ac56b337'
p370
aS'Alex & Ryan, I know you cheated!'
p371
aS'Chipotle-away!'
p372
aS'Kanye West is a jackass.'
p373
aS'http://www.canabalt.com/'
p374
aS'The time has come the walrus said.'
p375
aS'6eaa3449f7c743e714b795bf95777e31a16289123e35bdbf45f14a606a7285e8b25a540e7b887ce486524b0ab9249493'
p376
aasS'test555'
p377
(lp378
S'c33ca5e7eae116138d1d1b61158d58f9'
p379
aS'....'
p380
aI0
a(lp381
asS'stephen'
p382
(lp383
S'a757c90b75e80c554a6ae7d3482416dc'
p384
aS'blah'
p385
aI1400
a(lp386
S'DummyKey'
p387
aS'Stephania_Vu'
p388
aS'Stephania_Vu'
p389
aS'22916d763014eacc592c9e37ac56b337'
p390
aasS'depaul'
p391
(lp392
S'8063ff00ef490fdad412a8e3583f0528'
p393
aS'Depaul university'
p394
aI50
a(lp395
S'd3cfbbe8d785f6af1c3ac78005d1a35ccc0bcd50'
p396
aasS'rgutie01'
p397
(lp398
S'd8578edf8458ce06fbc5bb76a58c5ca4'
p399
aS'school'
p400
aI0
a(lp401
asS'admin'
p402
(lp403
S'63a9f0ea7bb98050796b649e85481845'
p404
aS'awesome'
p405
aI0
a(lp406
asS'nibbles'
p407
(lp408
S'3a456ee1e95887cf2b057561b6ced8c0'
p409
aS'random irc trolls team :)'
p410
aI5950
a(lp411
S'7db7cfa6112ae35488a00ee2b1af30f8'
p412
aS'6b7e4b50998169bc8e2a2b253ee7d9b9'
p413
aS'=2123409872345098237450928345720394857'
p414
aS'd81e8213797f23651cf57e59b4bd8da0'
p415
aS'Alex & Ryan, I know you cheated!'
p416
aS'22916d763014eacc592c9e37ac56b337'
p417
aS'Stephania_Vu'
p418
aS'Chipotle-away!'
p419
aS'Kanye West is a jackass.'
p420
aS'http://www.canabalt.com/'
p421
aS'She sells CSAWs by the seashore.'
p422
aS'The time has come the walrus said.'
p423
aS'15a1481fba554e8002ca89013ceae50b'
p424
aS'd3cfbbe8d785f6af1c3ac78005d1a35ccc0bcd50'
p425
aasS'tanamon'
p426
(lp427
S'b304b82640881fbb408dc3bd6e2635eb'
p428
aS'The University of Montana:Missoula '
p429
aI50
a(lp430
S'd3cfbbe8d785f6af1c3ac78005d1a35ccc0bcd50'
p431
aasS'rpisec'
p432
(lp433
S'77da448f4e75c623ccc0196faca71c02'
p434
aS'RPISEC'
p435
aI8800
a(lp436
S'd3cfbbe8d785f6af1c3ac78005d1a35ccc0bcd50'
p437
aS'07f510b08daf9623b790b35b1281363b5854069f2af396fbb2c3b8731bb81ffd'
p438
aS'b6fba5043d1a8fc1b670ea211c22b779c34c3c67'
p439
aS'7db7cfa6112ae35488a00ee2b1af30f8'
p440
aS'6b7e4b50998169bc8e2a2b253ee7d9b9'
p441
aS'=2123409872345098237450928345720394857'
p442
aS'9fa2ed4d5c181386c717a486eadef4bfcd7d7ed926b5b204'
p443
aS'd81e8213797f23651cf57e59b4bd8da0'
p444
aS'Stephania_Vu'
p445
aS'22916d763014eacc592c9e37ac56b337'
p446
aS'Alex & Ryan, I know you cheated!'
p447
aS'Chipotle-away!'
p448
aS'Kanye West is a jackass.'
p449
aS'http://www.canabalt.com/'
p450
aS'The time has come the walrus said.'
p451
aS'She sells CSAWs by the seashore.'
p452
aS'15a1481fba554e8002ca89013ceae50b'
p453
aS'42c87be0d8b21f5488b2576729f4b442'
p454
aS'01d028f7547bd13b522c24afd45d9064'
p455
aasS'zloss'
p456
(lp457
S'c7a45ccb69fbac7d573e18b8cf8e9834'
p458
aS'n/a'
p459
aI450
a(lp460
S'd81e8213797f23651cf57e59b4bd8da0'
p461
aS'6b7e4b50998169bc8e2a2b253ee7d9b9'
p462
aasS'blabla'
p463
(lp464
S'df5ea29924d39c3be8785734f13169c6'
p465
aS'aa'
p466
aI0
a(lp467
asS'Team Slackers'
p468
(lp469
S'c71245e6f51ce954199ffd31e2188930'
p470
aS'Slackers that get things DONE'
p471
aI150
a(lp472
S'6b7e4b50998169bc8e2a2b253ee7d9b9'
p473
aasS'foobar'
p7
(lp8
S'96948aad3fcae80c08a35c9b5958cd89'
p9
aS'AAAAAAAAAAAAAAAAAAAAAAAAAAAAAAAAAAAAAAAAAAAAAAAAAAAAAAAAAAAAAAAAAAAAAAAAAAAAAAAAAAAAAAAAAAAAAAAAAAAAAAAAAAAAAAAAAAAAAAAAAAAAAAAAAAAAAAAAAAAAAAAAAAAAAAAAAAAAAAAAAAAAAAAAAAAAAAAAAAAAAAAAAAAAAAAAAAAAAAAAAAAAAAAAAAAAAAAAAAAAAAAAAAAAAAAAAAAAAAAAAAAAAAAAAAAAAAAAAAAAAAAAAAAAAAAAAAAAAAAAAAAAAAAAAAAAAAAAAAAAAAAAAAAAAAAAAAAAAAAAAAAAAAAAAAAAAAAAAAAAAAAAAAAAAAAAAAAAAAAAAAAAAAAAAAAAAAAAAAAAAAAAAAAAA'
p10
aI0
a(lp11
asS'deanzero'
p12
(lp13
S'c3add7c8877a1a2f02bf95a1b47b3b2b'
p14
aS'er, I fail at this part'
p15
aI0
a(lp16
as.