(dp0
S'SISL'
p1
(lp2
S'ac6e500ff1507dbd1c764a5af201e842'
p3
aS'University of Illinois at Chicago'
p4
aI900
a(lp5
S'9fa2ed4d5c181386c717a486eadef4bfcd7d7ed926b5b204'
p6
aS'6eaa3449f7c743e714b795bf95777e31a16289123e35bdbf45f14a606a7285e8b25a540e7b887ce486524b0ab9249493'
p7
aS'd81e8213797f23651cf57e59b4bd8da0'
p8
aS'6b7e4b50998169bc8e2a2b253ee7d9b9'
p9
aS'd3cfbbe8d785f6af1c3ac78005d1a35ccc0bcd50'
p10
aasS'rvg'
p11
(lp12
S'19845c0e9cb08bef3d4f68bcae99bff5'
p13
aS'rv'
p14
aI550
a(lp15
S'Stephania_Vu'
p16
aS'6b7e4b50998169bc8e2a2b253ee7d9b9'
p17
aasS'teamalph@1'
p18
(lp19
S'13ece26c01d942ee4d618f2fbbf81325'
p20
aS'Multiple'
p21
aI4450
a(lp22
S'd3cfbbe8d785f6af1c3ac78005d1a35ccc0bcd50'
p23
aS'22916d763014eacc592c9e37ac56b337'
p24
aS'Stephania_Vu'
p25
aS'Alex & Ryan, I know you cheated!'
p26
aS'Kanye West is a jackass.'
p27
aS'http://www.canabalt.com/'
p28
aS'd81e8213797f23651cf57e59b4bd8da0'
p29
aS'Chipotle-away!'
p30
aS'6b7e4b50998169bc8e2a2b253ee7d9b9'
p31
aS'She sells CSAWs by the seashore.'
p32
aasS'foobar'
p33
(lp34
S'96948aad3fcae80c08a35c9b5958cd89'
p35
aS'AAAAAAAAAAAAAAAAAAAAAAAAAAAAAAAAAAAAAAAAAAAAAAAAAAAAAAAAAAAAAAAAAAAAAAAAAAAAAAAAAAAAAAAAAAAAAAAAAAAAAAAAAAAAAAAAAAAAAAAAAAAAAAAAAAAAAAAAAAAAAAAAAAAAAAAAAAAAAAAAAAAAAAAAAAAAAAAAAAAAAAAAAAAAAAAAAAAAAAAAAAAAAAAAAAAAAAAAAAAAAAAAAAAAAAAAAAAAAAAAAAAAAAAAAAAAAAAAAAAAAAAAAAAAAAAAAAAAAAAAAAAAAAAAAAAAAAAAAAAAAAAAAAAAAAAAAAAAAAAAAAAAAAAAAAAAAAAAAAAAAAAAAAAAAAAAAAAAAAAAAAAAAAAAAAAAAAAAAAAAAAAAAAAAA'
p36
aI0
a(lp37
asS'backdoorbandits'
p38
(lp39
S'ecd720607ecaa0cd1d812c51ce28a7cc'
p40
aS'AACC'
p41
aI400
a(lp42
S'Stephania_Vu'
p43
aasS'Jolly'
p44
(lp45
S'd64bc1eb577b062fa13ed20ddbc130f3'
p46
aS'NotCompeting'
p47
aI0
a(lp48
asS'ncrews'
p49
(lp50
S'9946871957891ba259f451940b4d82ba'
p51
aS'coolest'
p52
aI0
a(lp53
asS'ravi'
p54
(lp55
S'd007cb0434f9d2219e6bd8cb7d7245a0'
p56
aS'poly.edu - dummy registration test'
p57
aI0
a(lp58
asS'lolcat'
p59
(lp60
S'1aae4f5eb740067d22088604cd0dc189'
p61
aS'lolcat'
p62
aI0
a(lp63
asS'A Saphead'
p64
(lp65
S'6a204bd89f3c8348afd5c77c717a097a'
p66
aS'Sapheads'
p67
aI0
a(lp68
asS'phunkie'
p69
(lp70
S'ec49cd057198aec49ce1dc7302737078'
p71
aS'n/a'
p72
aI300
a(lp73
S'd81e8213797f23651cf57e59b4bd8da0'
p74
aasS'ppop'
p75
(lp76
S'073e62c77d09eccd1d0a1717a34587f0'
p77
aS'Plaid Parliament of Pwning (CMU)'
p78
aI16450
a(lp79
S'd81e8213797f23651cf57e59b4bd8da0'
p80
aS'9fa2ed4d5c181386c717a486eadef4bfcd7d7ed926b5b204'
p81
aS'7db7cfa6112ae35488a00ee2b1af30f8'
p82
aS'6eaa3449f7c743e714b795bf95777e31a16289123e35bdbf45f14a606a7285e8b25a540e7b887ce486524b0ab9249493'
p83
aS'Stephania_Vu'
p84
aS'22916d763014eacc592c9e37ac56b337'
p85
aS'=2123409872345098237450928345720394857'
p86
aS'6b7e4b50998169bc8e2a2b253ee7d9b9'
p87
aS'Kanye West is a jackass.'
p88
aS'http://www.canabalt.com/'
p89
aS'Alex & Ryan, I know you cheated!'
p90
aS'Chipotle-away!'
p91
aS'The time has come the walrus said.'
p92
aS'She sells CSAWs by the seashore.'
p93
aS'15a1481fba554e8002ca89013ceae50b'
p94
aS'4f42b2118ae13f0c0d01e79925db15e9'
p95
aS'42c87be0d8b21f5488b2576729f4b442'
p96
aS'5c5f9b0d6eeb92f3f82d472213c8a17e'
p97
aS'4612f502b8936fab6fffc71d5ba7098c'
p98
aS'f2dd5fb0fe58bf8c8971f9b2b40bb2b6'
p99
aS'07f510b08daf9623b790b35b1281363b5854069f2af396fbb2c3b8731bb81ffd'
p100
aasS'CMU'
p101
(lp102
S'ca8c8dd851420afd4cedd2eb136a9dcf'
p103
aS'Sober'
p104
aI9350
a(lp105
S'd3cfbbe8d785f6af1c3ac78005d1a35ccc0bcd50'
p106
aS'Stephania_Vu'
p107
aS'9fa2ed4d5c181386c717a486eadef4bfcd7d7ed926b5b204'
p108
aS'=2123409872345098237450928345720394857'
p109
aS'd81e8213797f23651cf57e59b4bd8da0'
p110
aS'6b7e4b50998169bc8e2a2b253ee7d9b9'
p111
aS'42c87be0d8b21f5488b2576729f4b442'
p112
aS'http://www.canabalt.com/'
p113
aS'Alex & Ryan, I know you cheated!'
p114
aS'Chipotle-away!'
p115
aS'Kanye West is a jackass.'
p116
aS'22916d763014eacc592c9e37ac56b337'
p117
aS'She sells CSAWs by the seashore.'
p118
aS'The time has come the walrus said.'
p119
aS'4f42b2118ae13f0c0d01e79925db15e9'
p120
aS'15a1481fba554e8002ca89013ceae50b'
p121
aS'01d028f7547bd13b522c24afd45d9064'
p122
aasS'cp'
p123
(lp124
S'a05ef84a88745c70ff1ea9dedd10e948'
p125
aS'An Cat.'
p126
aI1900
a(lp127
S'Kanye West is a jackass.'
p128
aS'Alex & Ryan, I know you cheated!'
p129
aS'Chipotle-away!'
p130
aasS'IEEE'
p131
(lp132
S'3d83928116900c5edda4b76daee1494f'
p133
aS'Poly IEEE'
p134
aI0
a(lp135
asS'CyberCadets'
p136
(lp137
S'f41387b6d5543d3d1379eeec3f4e078d'
p138
aS'Norwich University'
p139
aI150
a(lp140
S'6b7e4b50998169bc8e2a2b253ee7d9b9'
p141
aasS'deanzero'
p142
(lp143
S'c3add7c8877a1a2f02bf95a1b47b3b2b'
p144
aS'er, I fail at this part'
p145
aI0
a(lp146
asS'uaf'
p147
(lp148
S'fd58b2f05809b110779530bb2e4d9d8b'
p149
aS'from the frozen north'
p150
aI4450
a(lp151
S'=2123409872345098237450928345720394857'
p152
aS'd81e8213797f23651cf57e59b4bd8da0'
p153
aS'd3cfbbe8d785f6af1c3ac78005d1a35ccc0bcd50'
p154
aS'Stephania_Vu'
p155
aS'22916d763014eacc592c9e37ac56b337'
p156
aS'Alex & Ryan, I know you cheated!'
p157
aS'Chipotle-away!'
p158
aS'Kanye West is a jackass.'
p159
aS'http://www.canabalt.com/'
p160
aS'She sells CSAWs by the seashore.'
p161
aasS'rv'
p162
(lp163
S'243b0a66435299713f9593d8ecc72679'
p164
aS'rv'
p165
aI0
a(lp166
asS'revenger'
p167
(lp168
S'0af80fcfcee67fa7d9a1d2d6163a0371'
p169
aS'school'
p170
aI5050
a(lp171
S'6eaa3449f7c743e714b795bf95777e31a16289123e35bdbf45f14a606a7285e8b25a540e7b887ce486524b0ab9249493'
p172
aS'b6fba5043d1a8fc1b670ea211c22b779c34c3c67'
p173
aS'7db7cfa6112ae35488a00ee2b1af30f8'
p174
aS'6b7e4b50998169bc8e2a2b253ee7d9b9'
p175
aS'=2123409872345098237450928345720394857'
p176
aS'd81e8213797f23651cf57e59b4bd8da0'
p177
aS'Stephania_Vu'
p178
aS'22916d763014eacc592c9e37ac56b337'
p179
aS'9fa2ed4d5c181386c717a486eadef4bfcd7d7ed926b5b204'
p180
aS'Alex & Ryan, I know you cheated!'
p181
aS'Chipotle-away!'
p182
aS'http://www.canabalt.com/'
p183
aS'Kanye West is a jackass.'
p184
aasS'HockeyInJune'
p185
(lp186
S'0f8a353fced9eebbdd45b1441d8731c8'
p187
aS'Freshman @ NYU Poly.'
p188
aI6350
a(lp189
S'd3cfbbe8d785f6af1c3ac78005d1a35ccc0bcd50'
p190
aS'6eaa3449f7c743e714b795bf95777e31a16289123e35bdbf45f14a606a7285e8b25a540e7b887ce486524b0ab9249493'
p191
aS'b6fba5043d1a8fc1b670ea211c22b779c34c3c67'
p192
aS'6b7e4b50998169bc8e2a2b253ee7d9b9'
p193
aS'=2123409872345098237450928345720394857'
p194
aS'9fa2ed4d5c181386c717a486eadef4bfcd7d7ed926b5b204'
p195
aS'd81e8213797f23651cf57e59b4bd8da0'
p196
aS'Stephania_Vu'
p197
aS'22916d763014eacc592c9e37ac56b337'
p198
aS'Alex & Ryan, I know you cheated!'
p199
aS'Chipotle-away!'
p200
aS'Kanye West is a jackass.'
p201
aS'She sells CSAWs by the seashore.'
p202
aS'The time has come the walrus said.'
p203
aS'7db7cfa6112ae35488a00ee2b1af30f8'
p204
aS'07f510b08daf9623b790b35b1281363b5854069f2af396fbb2c3b8731bb81ffd'
p205
aS'http://www.canabalt.com/'
p206
aasS'!first'
p207
(lp208
S'6dd075556effaa6e7f1e3e3ba9fdc5fa'
p209
aS'Cal Poly and Poly NYU!'
p210
aI5550
a(lp211
S'Stephania_Vu'
p212
aS'22916d763014eacc592c9e37ac56b337'
p213
aS'Alex & Ryan, I know you cheated!'
p214
aS'Chipotle-away!'
p215
aS'Kanye West is a jackass.'
p216
aS'http://www.canabalt.com/'
p217
aS'She sells CSAWs by the seashore.'
p218
aS'The time has come the walrus said.'
p219
aS'9fa2ed4d5c181386c717a486eadef4bfcd7d7ed926b5b204'
p220
aS'd3cfbbe8d785f6af1c3ac78005d1a35ccc0bcd50'
p221
aS'6eaa3449f7c743e714b795bf95777e31a16289123e35bdbf45f14a606a7285e8b25a540e7b887ce486524b0ab9249493'
p222
aS'd81e8213797f23651cf57e59b4bd8da0'
p223
aS'=2123409872345098237450928345720394857'
p224
aasS'SecDaemons'
p225
(lp226
S'd41d8cd98f00b204e9800998ecf8427e'
p227
aS'DePaul University'
p228
aI7100
a(lp229
S'd3cfbbe8d785f6af1c3ac78005d1a35ccc0bcd50'
p230
aS'6eaa3449f7c743e714b795bf95777e31a16289123e35bdbf45f14a606a7285e8b25a540e7b887ce486524b0ab9249493'
p231
aS'b6fba5043d1a8fc1b670ea211c22b779c34c3c67'
p232
aS'6b7e4b50998169bc8e2a2b253ee7d9b9'
p233
aS'=2123409872345098237450928345720394857'
p234
aS'9fa2ed4d5c181386c717a486eadef4bfcd7d7ed926b5b204'
p235
aS'd81e8213797f23651cf57e59b4bd8da0'
p236
aS'22916d763014eacc592c9e37ac56b337'
p237
aS'Stephania_Vu'
p238
aS'Alex & Ryan, I know you cheated!'
p239
aS'Chipotle-away!'
p240
aS'Kanye West is a jackass.'
p241
aS'http://www.canabalt.com/'
p242
aS'She sells CSAWs by the seashore.'
p243
aS'The time has come the walrus said.'
p244
aS'7db7cfa6112ae35488a00ee2b1af30f8'
p245
aS'07f510b08daf9623b790b35b1281363b5854069f2af396fbb2c3b8731bb81ffd'
p246
aS'42c87be0d8b21f5488b2576729f4b442'
p247
aasS'asdf'
p248
(lp249
S'912ec803b2ce49e4a541068d495ab570'
p250
aS'asdf'
p251
aI0
a(lp252
asS'fluxfingers'
p253
(lp254
S'ae2f30ef890f9239681d5ea7622ed791'
p255
aS'students from Ruhr-University Bochum'
p256
aI2450
a(lp257
S'7db7cfa6112ae35488a00ee2b1af30f8'
p258
aS'=2123409872345098237450928345720394857'
p259
aS'Stephania_Vu'
p260
aS'22916d763014eacc592c9e37ac56b337'
p261
aS'6b7e4b50998169bc8e2a2b253ee7d9b9'
p262
aS'9fa2ed4d5c181386c717a486eadef4bfcd7d7ed926b5b204'
p263
aS'b6fba5043d1a8fc1b670ea211c22b779c34c3c67'
p264
aS'd81e8213797f23651cf57e59b4bd8da0'
p265
aS'6eaa3449f7c743e714b795bf95777e31a16289123e35bdbf45f14a606a7285e8b25a540e7b887ce486524b0ab9249493'
p266
aasS'ed'
p267
(lp268
S'e64bd2664849002a18984a5eee82f6a1'
p269
aS'CMU (grad team)'
p270
aI0
a(lp271
asS'underground'
p272
(lp273
S'9c21c55ef670d9a90c3dfdc2053d3ff8'
p274
aS'purdue'
p275
aI3800
a(lp276
S'7db7cfa6112ae35488a00ee2b1af30f8'
p277
aS'6b7e4b50998169bc8e2a2b253ee7d9b9'
p278
aS'Stephania_Vu'
p279
aS'Alex & Ryan, I know you cheated!'
p280
aS'Chipotle-away!'
p281
aS'http://www.canabalt.com/'
p282
aS'22916d763014eacc592c9e37ac56b337'
p283
aS'Kanye West is a jackass.'
p284
aasS'blabla'
p285
(lp286
S'df5ea29924d39c3be8785734f13169c6'
p287
aS'aa'
p288
aI0
a(lp289
asS'TeamGG'
p290
(lp291
S'2a4a55ea09296769bb0801dd84b5c348'
p292
aS'UHH Team GG Hilo'
p293
aI5700
a(lp294
S'd3cfbbe8d785f6af1c3ac78005d1a35ccc0bcd50'
p295
aS'=2123409872345098237450928345720394857'
p296
aS'd81e8213797f23651cf57e59b4bd8da0'
p297
aS'6b7e4b50998169bc8e2a2b253ee7d9b9'
p298
aS'Stephania_Vu'
p299
aS'22916d763014eacc592c9e37ac56b337'
p300
aS'Alex & Ryan, I know you cheated!'
p301
aS'Chipotle-away!'
p302
aS'Kanye West is a jackass.'
p303
aS'http://www.canabalt.com/'
p304
aS'She sells CSAWs by the seashore.'
p305
aS'The time has come the walrus said.'
p306
aS'07f510b08daf9623b790b35b1281363b5854069f2af396fbb2c3b8731bb81ffd'
p307
aS'6eaa3449f7c743e714b795bf95777e31a16289123e35bdbf45f14a606a7285e8b25a540e7b887ce486524b0ab9249493'
p308
aasS'maxsecu'
p309
(lp310
S'591b2e5b56ff9bf4bf421dee6befc015'
p311
aS'etc'
p312
aI0
a(lp313
asS'ethanhayon'
p314
(lp315
S'e3aa1ba70d06e1a257ca37d25dfa3e1e'
p316
aS'Hayon'
p317
aI0
a(lp318
asS'HntrKlr'
p319
(lp320
S'0d4d918561ca72cbb83d7cd3a75b0537'
p321
aS'NOPerators'
p322
aI150
a(lp323
S'6b7e4b50998169bc8e2a2b253ee7d9b9'
p324
aasS'TeamAFK'
p325
(lp326
S'e295183063ea443a9cae6292f68cc021'
p327
aS'UHH Team AFK Hilo'
p328
aI5700
a(lp329
S'd3cfbbe8d785f6af1c3ac78005d1a35ccc0bcd50'
p330
aS'=2123409872345098237450928345720394857'
p331
aS'd81e8213797f23651cf57e59b4bd8da0'
p332
aS'6b7e4b50998169bc8e2a2b253ee7d9b9'
p333
aS'Stephania_Vu'
p334
aS'22916d763014eacc592c9e37ac56b337'
p335
aS'Alex & Ryan, I know you cheated!'
p336
aS'Chipotle-away!'
p337
aS'Kanye West is a jackass.'
p338
aS'http://www.canabalt.com/'
p339
aS'She sells CSAWs by the seashore.'
p340
aS'The time has come the walrus said.'
p341
aS'07f510b08daf9623b790b35b1281363b5854069f2af396fbb2c3b8731bb81ffd'
p342
aS'6eaa3449f7c743e714b795bf95777e31a16289123e35bdbf45f14a606a7285e8b25a540e7b887ce486524b0ab9249493'
p343
aasS'rofl0r'
p344
(lp345
S'31d8f5a16b79fe3f385a42cb3b892253'
p346
aS'n00b.at'
p347
aI4650
a(lp348
S'Stephania_Vu'
p349
aS'22916d763014eacc592c9e37ac56b337'
p350
aS'Alex & Ryan, I know you cheated!'
p351
aS'Chipotle-away!'
p352
aS'Kanye West is a jackass.'
p353
aS'http://www.canabalt.com/'
p354
aS'The time has come the walrus said.'
p355
aS'She sells CSAWs by the seashore.'
p356
aasS'sla.ckers'
p357
(lp358
S'0945fc9611f55fd0e183fb8b044f1afe'
p359
aS'sla.ckers.org'
p360
aI6900
a(lp361
S'6b7e4b50998169bc8e2a2b253ee7d9b9'
p362
aS'd3cfbbe8d785f6af1c3ac78005d1a35ccc0bcd50'
p363
aS'b6fba5043d1a8fc1b670ea211c22b779c34c3c67'
p364
aS'7db7cfa6112ae35488a00ee2b1af30f8'
p365
aS'9fa2ed4d5c181386c717a486eadef4bfcd7d7ed926b5b204'
p366
aS'd81e8213797f23651cf57e59b4bd8da0'
p367
aS'She sells CSAWs by the seashore.'
p368
aS'Stephania_Vu'
p369
aS'22916d763014eacc592c9e37ac56b337'
p370
aS'Alex & Ryan, I know you cheated!'
p371
aS'Chipotle-away!'
p372
aS'Kanye West is a jackass.'
p373
aS'http://www.canabalt.com/'
p374
aS'The time has come the walrus said.'
p375
aS'6eaa3449f7c743e714b795bf95777e31a16289123e35bdbf45f14a606a7285e8b25a540e7b887ce486524b0ab9249493'
p376
aasS'test555'
p377
(lp378
S'c33ca5e7eae116138d1d1b61158d58f9'
p379
aS'....'
p380
aI0
a(lp381
asS'stephen'
p382
(lp383
S'a757c90b75e80c554a6ae7d3482416dc'
p384
aS'blah'
p385
aI1400
a(lp386
S'DummyKey'
p387
aS'Stephania_Vu'
p388
aS'Stephania_Vu'
p389
aS'22916d763014eacc592c9e37ac56b337'
p390
aasS'depaul'
p391
(lp392
S'8063ff00ef490fdad412a8e3583f0528'
p393
aS'Depaul university'
p394
aI50
a(lp395
S'd3cfbbe8d785f6af1c3ac78005d1a35ccc0bcd50'
p396
aasS'rgutie01'
p397
(lp398
S'd8578edf8458ce06fbc5bb76a58c5ca4'
p399
aS'school'
p400
aI0
a(lp401
asS'admin'
p402
(lp403
S'63a9f0ea7bb98050796b649e85481845'
p404
aS'awesome'
p405
aI0
a(lp406
asS'nibbles'
p407
(lp408
S'3a456ee1e95887cf2b057561b6ced8c0'
p409
aS'random irc trolls team :)'
p410
aI5950
a(lp411
S'7db7cfa6112ae35488a00ee2b1af30f8'
p412
aS'6b7e4b50998169bc8e2a2b253ee7d9b9'
p413
aS'=2123409872345098237450928345720394857'
p414
aS'd81e8213797f23651cf57e59b4bd8da0'
p415
aS'Alex & Ryan, I know you cheated!'
p416
aS'22916d763014eacc592c9e37ac56b337'
p417
aS'Stephania_Vu'
p418
aS'Chipotle-away!'
p419
aS'Kanye West is a jackass.'
p420
aS'http://www.canabalt.com/'
p421
aS'She sells CSAWs by the seashore.'
p422
aS'The time has come the walrus said.'
p423
aS'15a1481fba554e8002ca89013ceae50b'
p424
aS'd3cfbbe8d785f6af1c3ac78005d1a35ccc0bcd50'
p425
aasS'tanamon'
p426
(lp427
S'b304b82640881fbb408dc3bd6e2635eb'
p428
aS'The University of Montana:Missoula '
p429
aI50
a(lp430
S'd3cfbbe8d785f6af1c3ac78005d1a35ccc0bcd50'
p431
aasS'rpisec'
p432
(lp433
S'77da448f4e75c623ccc0196faca71c02'
p434
aS'RPISEC'
p435
aI9600
a(lp436
S'd3cfbbe8d785f6af1c3ac78005d1a35ccc0bcd50'
p437
aS'07f510b08daf9623b790b35b1281363b5854069f2af396fbb2c3b8731bb81ffd'
p438
aS'b6fba5043d1a8fc1b670ea211c22b779c34c3c67'
p439
aS'7db7cfa6112ae35488a00ee2b1af30f8'
p440
aS'6b7e4b50998169bc8e2a2b253ee7d9b9'
p441
aS'=2123409872345098237450928345720394857'
p442
aS'9fa2ed4d5c181386c717a486eadef4bfcd7d7ed926b5b204'
p443
aS'd81e8213797f23651cf57e59b4bd8da0'
p444
aS'Stephania_Vu'
p445
aS'22916d763014eacc592c9e37ac56b337'
p446
aS'Alex & Ryan, I know you cheated!'
p447
aS'Chipotle-away!'
p448
aS'Kanye West is a jackass.'
p449
aS'http://www.canabalt.com/'
p450
aS'The time has come the walrus said.'
p451
aS'She sells CSAWs by the seashore.'
p452
aS'15a1481fba554e8002ca89013ceae50b'
p453
aS'42c87be0d8b21f5488b2576729f4b442'
p454
aS'01d028f7547bd13b522c24afd45d9064'
p455
aasS'zloss'
p456
(lp457
S'c7a45ccb69fbac7d573e18b8cf8e9834'
p458
aS'n/a'
p459
aI450
a(lp460
S'd81e8213797f23651cf57e59b4bd8da0'
p461
aS'6b7e4b50998169bc8e2a2b253ee7d9b9'
p462
aasS'`ls`;:\'|"'
p463
(lp464
S'd41d8cd98f00b204e9800998ecf8427e'
p465
aS''
p466
aI0
a(lp467
asS'Team Slackers'
p468
(lp469
S'c71245e6f51ce954199ffd31e2188930'
p470
aS'Slackers that get things DONE'
p471
aI150
a(lp472
S'6b7e4b50998169bc8e2a2b253ee7d9b9'
p473
aas.